; Function Attrs: nounwind uwtable
define noalias noundef ptr @Cec_ManSStart(ptr noundef %0, i32 noundef %1) local_unnamed_addr #0 {
  %calloc = tail call dereferenceable_or_null(1016) ptr @calloc(i64 1, i64 1016)
  store i32 %1, ptr %calloc, align 8, !tbaa !3
  %3 = getelementptr inbounds nuw i8, ptr %calloc, i64 16
  store ptr %0, ptr %3, align 8, !tbaa !14
  %4 = tail call noalias dereferenceable_or_null(16) ptr @malloc(i64 noundef 16) #19
  %5 = getelementptr inbounds nuw i8, ptr %4, i64 4
  store i32 0, ptr %5, align 4, !tbaa !15
  store i32 100, ptr %4, align 8, !tbaa !18
  %6 = tail call noalias dereferenceable_or_null(400) ptr @malloc(i64 noundef 400) #19
  %7 = getelementptr inbounds nuw i8, ptr %4, i64 8
  store ptr %6, ptr %7, align 8, !tbaa !19
  %8 = getelementptr inbounds nuw i8, ptr %calloc, i64 24
  store ptr %4, ptr %8, align 8, !tbaa !20
  %9 = tail call i32 @Gia_ManLevelNum(ptr noundef %0) #20
  %10 = add nsw i32 %9, 1
  %11 = tail call noalias dereferenceable_or_null(16) ptr @malloc(i64 noundef 16) #19
  %or.cond.i.i = icmp ult i32 %9, 7
  %spec.store.select.i.i = select i1 %or.cond.i.i, i32 8, i32 %10
  store i32 %spec.store.select.i.i, ptr %11, align 8, !tbaa !21
  %.not.i.i = icmp eq i32 %spec.store.select.i.i, 0
  br i1 %.not.i.i, label %Vec_WecStart.exit, label %12

12:                                               ; preds = %2
  %13 = sext i32 %spec.store.select.i.i to i64
  %14 = tail call noalias ptr @calloc(i64 noundef %13, i64 noundef 16) #21
  br label %Vec_WecStart.exit

Vec_WecStart.exit:                                ; preds = %2, %12
  %15 = phi ptr [ %14, %12 ], [ null, %2 ]
  %16 = getelementptr inbounds nuw i8, ptr %11, i64 4
  %17 = getelementptr inbounds nuw i8, ptr %11, i64 8
  store ptr %15, ptr %17, align 8, !tbaa !23
  store i32 %10, ptr %16, align 4, !tbaa !24
  %18 = getelementptr inbounds nuw i8, ptr %calloc, i64 32
  store ptr %11, ptr %18, align 8, !tbaa !25
  %19 = getelementptr i8, ptr %0, i64 24
  %.val = load i32, ptr %19, align 8, !tbaa !26
  %20 = shl i32 %1, 1
  %21 = mul i32 %20, %.val
  %22 = tail call noalias dereferenceable_or_null(16) ptr @malloc(i64 noundef 16) #19
  %23 = add i32 %21, -1
  %or.cond.i.i24 = icmp ult i32 %23, 15
  %spec.store.select.i.i25 = select i1 %or.cond.i.i24, i32 16, i32 %21
  store i32 %spec.store.select.i.i25, ptr %22, align 8, !tbaa !40
  %.not.i.i26 = icmp eq i32 %spec.store.select.i.i25, 0
  br i1 %.not.i.i26, label %Vec_WrdStart.exit, label %24

24:                                               ; preds = %Vec_WecStart.exit
  %25 = sext i32 %spec.store.select.i.i25 to i64
  %26 = shl nsw i64 %25, 3
  %27 = tail call noalias ptr @malloc(i64 noundef %26) #19
  br label %Vec_WrdStart.exit

Vec_WrdStart.exit:                                ; preds = %Vec_WecStart.exit, %24
  %28 = phi ptr [ %27, %24 ], [ null, %Vec_WecStart.exit ]
  %29 = getelementptr inbounds nuw i8, ptr %22, i64 4
  %30 = getelementptr inbounds nuw i8, ptr %22, i64 8
  store ptr %28, ptr %30, align 8, !tbaa !43
  store i32 %21, ptr %29, align 4, !tbaa !44
  %31 = sext i32 %21 to i64
  %32 = shl nsw i64 %31, 3
  tail call void @llvm.memset.p0.i64(ptr align 8 %28, i8 0, i64 %32, i1 false)
  %33 = getelementptr inbounds nuw i8, ptr %calloc, i64 40
  store ptr %22, ptr %33, align 8, !tbaa !45
  %34 = shl nsw i32 %1, 2
  %35 = sext i32 %34 to i64
  %36 = shl nsw i64 %35, 3
  %37 = tail call noalias ptr @malloc(i64 noundef %36) #19
  %38 = getelementptr inbounds nuw i8, ptr %calloc, i64 48
  store ptr %37, ptr %38, align 8, !tbaa !46
  %39 = sext i32 %1 to i64
  br label %41

.preheader:                                       ; preds = %41
  %40 = getelementptr inbounds nuw i8, ptr %calloc, i64 80
  br label %45

41:                                               ; preds = %Vec_WrdStart.exit, %41
  %42 = phi ptr [ %37, %Vec_WrdStart.exit ], [ %43, %41 ]
  %indvars.iv = phi i64 [ 1, %Vec_WrdStart.exit ], [ %indvars.iv.next, %41 ]
  %43 = getelementptr inbounds i64, ptr %42, i64 %39
  %44 = getelementptr inbounds nuw [4 x ptr], ptr %38, i64 0, i64 %indvars.iv
  store ptr %43, ptr %44, align 8, !tbaa !46
  %indvars.iv.next = add nuw nsw i64 %indvars.iv, 1
  %exitcond.not = icmp eq i64 %indvars.iv.next, 4
  br i1 %exitcond.not, label %.preheader, label %41, !llvm.loop !47

45:                                               ; preds = %.preheader, %45
  %indvars.iv30 = phi i64 [ 0, %.preheader ], [ %indvars.iv.next31, %45 ]
  %46 = tail call i64 @Gia_ManRandomW(i32 noundef 0) #20
  %47 = getelementptr inbounds nuw [113 x i64], ptr %40, i64 0, i64 %indvars.iv30
  store i64 %46, ptr %47, align 8, !tbaa !49
  %indvars.iv.next31 = add nuw nsw i64 %indvars.iv30, 1
  %exitcond33.not = icmp eq i64 %indvars.iv.next31, 113
  br i1 %exitcond33.not, label %48, label %45, !llvm.loop !50

48:                                               ; preds = %45
  ret ptr %calloc
}